target datalayout = "e-m:e-p270:32:32-p271:32:32-p272:64:64-i64:64-i128:128-f80:128-n8:16:32:64-S128"
target triple = "x86_64-pc-linux-gnu"

%struct.nameData = type { [64 x i8] }
%struct.RelationData = type { %struct.RelFileLocator, ptr, i32, i32, i8, i8, i8, i8, i8, i32, i32, i32, i32, ptr, ptr, i32, %struct.LockInfoData, ptr, ptr, ptr, ptr, ptr, i8, ptr, ptr, ptr, ptr, ptr, ptr, i32, ptr, i8, ptr, ptr, i32, i8, i32, ptr, i8, ptr, ptr, ptr, ptr, ptr, ptr, ptr, i32, ptr, ptr, ptr, ptr, ptr, ptr, ptr, ptr, ptr, ptr, ptr, ptr, ptr, ptr, ptr, ptr, ptr, ptr, ptr, i32, i8, ptr }
%struct.RelFileLocator = type { i32, i32, i32 }
%struct.LockInfoData = type { %struct.LockRelId }
%struct.LockRelId = type { i32, i32 }
%struct.FormData_pg_class = type { i32, %struct.nameData, i32, i32, i32, i32, i32, i32, i32, i32, float, i32, i32, i8, i8, i8, i8, i16, i16, i8, i8, i8, i8, i8, i8, i8, i8, i32, i32, i32 }
%struct.ForEachState = type { ptr, i32 }
%struct.List = type { i32, i32, i32, ptr, [0 x %union.ListCell] }
%union.ListCell = type { ptr }

; Function Attrs: nounwind uwtable
define internal i64 @calculate_toast_table_size(i32 noundef %0) #0 {
  %2 = alloca i32, align 4
  %3 = alloca i64, align 8
  %4 = alloca ptr, align 8
  %5 = alloca i32, align 4
  %6 = alloca ptr, align 8
  %7 = alloca ptr, align 8
  %8 = alloca %struct.ForEachState, align 8
  %9 = alloca ptr, align 8
  store i32 %0, ptr %2, align 4
  call void @llvm.lifetime.start.p0(i64 8, ptr %3) #10
  store i64 0, ptr %3, align 8
  call void @llvm.lifetime.start.p0(i64 8, ptr %4) #10
  call void @llvm.lifetime.start.p0(i64 4, ptr %5) #10
  call void @llvm.lifetime.start.p0(i64 8, ptr %6) #10
  call void @llvm.lifetime.start.p0(i64 8, ptr %7) #10
  %10 = load i32, ptr %2, align 4
  %11 = call ptr @relation_open(i32 noundef %10, i32 noundef 1)
  store ptr %11, ptr %4, align 8
  store i32 0, ptr %5, align 4
  br label %12

12:                                               ; preds = %25, %1
  %13 = load i32, ptr %5, align 4
  %14 = icmp sle i32 %13, 3
  br i1 %14, label %15, label %28

15:                                               ; preds = %12
  %16 = load ptr, ptr %4, align 8
  %17 = getelementptr inbounds nuw %struct.RelationData, ptr %16, i32 0, i32 0
  %18 = load ptr, ptr %4, align 8
  %19 = getelementptr inbounds nuw %struct.RelationData, ptr %18, i32 0, i32 3
  %20 = load i32, ptr %19, align 4
  %21 = load i32, ptr %5, align 4
  %22 = call i64 @calculate_relation_size(ptr noundef %17, i32 noundef %20, i32 noundef %21)
  %23 = load i64, ptr %3, align 8
  %24 = add i64 %23, %22
  store i64 %24, ptr %3, align 8
  br label %25

25:                                               ; preds = %15
  %26 = load i32, ptr %5, align 4
  %27 = add i32 %26, 1
  store i32 %27, ptr %5, align 4
  br label %12, !llvm.loop !22

28:                                               ; preds = %12
  %29 = load ptr, ptr %4, align 8
  %30 = call ptr @RelationGetIndexList(ptr noundef %29)
  store ptr %30, ptr %7, align 8
  call void @llvm.lifetime.start.p0(i64 16, ptr %8) #10
  %31 = getelementptr inbounds nuw %struct.ForEachState, ptr %8, i32 0, i32 0
  %32 = load ptr, ptr %7, align 8
  store ptr %32, ptr %31, align 8
  %33 = getelementptr inbounds nuw %struct.ForEachState, ptr %8, i32 0, i32 1
  store i32 0, ptr %33, align 8
  %34 = getelementptr i8, ptr %8, i64 12
  call void @llvm.memset.p0.i64(ptr align 4 %34, i8 0, i64 4, i1 false)
  br label %35

35:                                               ; preds = %83, %28
  %36 = getelementptr inbounds nuw %struct.ForEachState, ptr %8, i32 0, i32 0
  %37 = load ptr, ptr %36, align 8
  %38 = icmp ne ptr %37, null
  br i1 %38, label %39, label %56

39:                                               ; preds = %35
  %40 = getelementptr inbounds nuw %struct.ForEachState, ptr %8, i32 0, i32 1
  %41 = load i32, ptr %40, align 8
  %42 = getelementptr inbounds nuw %struct.ForEachState, ptr %8, i32 0, i32 0
  %43 = load ptr, ptr %42, align 8
  %44 = getelementptr inbounds nuw %struct.List, ptr %43, i32 0, i32 1
  %45 = load i32, ptr %44, align 4
  %46 = icmp slt i32 %41, %45
  br i1 %46, label %47, label %56

47:                                               ; preds = %39
  %48 = getelementptr inbounds nuw %struct.ForEachState, ptr %8, i32 0, i32 0
  %49 = load ptr, ptr %48, align 8
  %50 = getelementptr inbounds nuw %struct.List, ptr %49, i32 0, i32 3
  %51 = load ptr, ptr %50, align 8
  %52 = getelementptr inbounds nuw %struct.ForEachState, ptr %8, i32 0, i32 1
  %53 = load i32, ptr %52, align 8
  %54 = sext i32 %53 to i64
  %55 = getelementptr inbounds %union.ListCell, ptr %51, i64 %54
  store ptr %55, ptr %6, align 8
  br label %57

56:                                               ; preds = %39, %35
  store ptr null, ptr %6, align 8
  br label %57

57:                                               ; preds = %56, %47
  %58 = phi i32 [ 1, %47 ], [ 0, %56 ]
  %59 = icmp ne i32 %58, 0
  br i1 %59, label %61, label %60

60:                                               ; preds = %57
  call void @llvm.lifetime.end.p0(i64 16, ptr %8) #10
  br label %87

61:                                               ; preds = %57
  call void @llvm.lifetime.start.p0(i64 8, ptr %9) #10
  %62 = load ptr, ptr %6, align 8
  %63 = load i32, ptr %62, align 8
  %64 = call ptr @relation_open(i32 noundef %63, i32 noundef 1)
  store ptr %64, ptr %9, align 8
  store i32 0, ptr %5, align 4
  br label %65

65:                                               ; preds = %78, %61
  %66 = load i32, ptr %5, align 4
  %67 = icmp sle i32 %66, 3
  br i1 %67, label %68, label %81

68:                                               ; preds = %65
  %69 = load ptr, ptr %9, align 8
  %70 = getelementptr inbounds nuw %struct.RelationData, ptr %69, i32 0, i32 0
  %71 = load ptr, ptr %9, align 8
  %72 = getelementptr inbounds nuw %struct.RelationData, ptr %71, i32 0, i32 3
  %73 = load i32, ptr %72, align 4
  %74 = load i32, ptr %5, align 4
  %75 = call i64 @calculate_relation_size(ptr noundef %70, i32 noundef %73, i32 noundef %74)
  %76 = load i64, ptr %3, align 8
  %77 = add i64 %76, %75
  store i64 %77, ptr %3, align 8
  br label %78

78:                                               ; preds = %68
  %79 = load i32, ptr %5, align 4
  %80 = add i32 %79, 1
  store i32 %80, ptr %5, align 4
  br label %65, !llvm.loop !23

81:                                               ; preds = %65
  %82 = load ptr, ptr %9, align 8
  call void @relation_close(ptr noundef %82, i32 noundef 1)
  call void @llvm.lifetime.end.p0(i64 8, ptr %9) #10
  br label %83

83:                                               ; preds = %81
  %84 = getelementptr inbounds nuw %struct.ForEachState, ptr %8, i32 0, i32 1
  %85 = load i32, ptr %84, align 8
  %86 = add i32 %85, 1
  store i32 %86, ptr %84, align 8
  br label %35, !llvm.loop !24

87:                                               ; preds = %60
  %88 = load ptr, ptr %7, align 8
  call void @list_free(ptr noundef %88)
  %89 = load ptr, ptr %4, align 8
  call void @relation_close(ptr noundef %89, i32 noundef 1)
  %90 = load i64, ptr %3, align 8
  call void @llvm.lifetime.end.p0(i64 8, ptr %7) #10
  call void @llvm.lifetime.end.p0(i64 8, ptr %6) #10
  call void @llvm.lifetime.end.p0(i64 4, ptr %5) #10
  call void @llvm.lifetime.end.p0(i64 8, ptr %4) #10
  call void @llvm.lifetime.end.p0(i64 8, ptr %3) #10
  ret i64 %90
}

; Function Attrs: nounwind uwtable
define internal i64 @calculate_table_size(ptr noundef %0) #0 {
  %2 = alloca ptr, align 8
  %3 = alloca i64, align 8
  %4 = alloca i32, align 4
  store ptr %0, ptr %2, align 8
  call void @llvm.lifetime.start.p0(i64 8, ptr %3) #10
  store i64 0, ptr %3, align 8
  call void @llvm.lifetime.start.p0(i64 4, ptr %4) #10
  store i32 0, ptr %4, align 4
  br label %5

5:                                                ; preds = %18, %1
  %6 = load i32, ptr %4, align 4
  %7 = icmp sle i32 %6, 3
  br i1 %7, label %8, label %21

8:                                                ; preds = %5
  %9 = load ptr, ptr %2, align 8
  %10 = getelementptr inbounds nuw %struct.RelationData, ptr %9, i32 0, i32 0
  %11 = load ptr, ptr %2, align 8
  %12 = getelementptr inbounds nuw %struct.RelationData, ptr %11, i32 0, i32 3
  %13 = load i32, ptr %12, align 4
  %14 = load i32, ptr %4, align 4
  %15 = call i64 @calculate_relation_size(ptr noundef %10, i32 noundef %13, i32 noundef %14)
  %16 = load i64, ptr %3, align 8
  %17 = add i64 %16, %15
  store i64 %17, ptr %3, align 8
  br label %18

18:                                               ; preds = %8
  %19 = load i32, ptr %4, align 4
  %20 = add i32 %19, 1
  store i32 %20, ptr %4, align 4
  br label %5, !llvm.loop !7

21:                                               ; preds = %5
  %22 = load ptr, ptr %2, align 8
  %23 = getelementptr inbounds nuw %struct.RelationData, ptr %22, i32 0, i32 13
  %24 = load ptr, ptr %23, align 8
  %25 = getelementptr inbounds nuw %struct.FormData_pg_class, ptr %24, i32 0, i32 12
  %26 = load i32, ptr %25, align 4
  %27 = icmp ne i32 %26, 0
  br i1 %27, label %28, label %37

28:                                               ; preds = %21
  %29 = load ptr, ptr %2, align 8
  %30 = getelementptr inbounds nuw %struct.RelationData, ptr %29, i32 0, i32 13
  %31 = load ptr, ptr %30, align 8
  %32 = getelementptr inbounds nuw %struct.FormData_pg_class, ptr %31, i32 0, i32 12
  %33 = load i32, ptr %32, align 4
  %34 = call i64 @calculate_toast_table_size(i32 noundef %33)
  %35 = load i64, ptr %3, align 8
  %36 = add i64 %35, %34
  store i64 %36, ptr %3, align 8
  br label %37

37:                                               ; preds = %28, %21
  %38 = load i64, ptr %3, align 8
  call void @llvm.lifetime.end.p0(i64 4, ptr %4) #10
  call void @llvm.lifetime.end.p0(i64 8, ptr %3) #10
  ret i64 %38
}