; Function Attrs: nounwind uwtable
define internal fastcc i64 @calculate_table_size(ptr noundef nonnull readonly captures(none) %0) unnamed_addr #0 {
  %2 = alloca [1024 x i8], align 16
  %3 = alloca %struct.stat, align 8
  %4 = getelementptr inbounds nuw i8, ptr %0, i64 28
  br label %5

5:                                                ; preds = %1, %5
  %.014 = phi i32 [ 0, %1 ], [ %9, %5 ]
  %.0913 = phi i64 [ 0, %1 ], [ %8, %5 ]
  %6 = load i32, ptr %4, align 4
  %7 = tail call fastcc i64 @calculate_relation_size(ptr noundef nonnull %0, i32 noundef %6, i32 noundef %.014)
  %8 = add i64 %7, %.0913
  %9 = add nuw nsw i32 %.014, 1
  %exitcond.not = icmp eq i32 %9, 4
  br i1 %exitcond.not, label %10, label %5, !llvm.loop !8

10:                                               ; preds = %5
  %11 = getelementptr inbounds nuw i8, ptr %0, i64 56
  %12 = load ptr, ptr %11, align 8
  %13 = getelementptr inbounds nuw i8, ptr %12, i64 108
  %14 = load i32, ptr %13, align 4
  %.not = icmp eq i32 %14, 0
  br i1 %.not, label %74, label %15

15:                                               ; preds = %10
  %16 = tail call ptr @relation_open(i32 noundef range(i32 1, 0) %14, i32 noundef 1) #9
  %17 = getelementptr inbounds nuw i8, ptr %16, i64 28
  br label %18

18:                                               ; preds = %18, %15
  %.033.i = phi i64 [ 0, %15 ], [ %21, %18 ]
  %.02332.i = phi i32 [ 0, %15 ], [ %22, %18 ]
  %19 = load i32, ptr %17, align 4
  %20 = tail call fastcc i64 @calculate_relation_size(ptr noundef %16, i32 noundef %19, i32 noundef %.02332.i)
  %21 = add i64 %20, %.033.i
  %22 = add nuw nsw i32 %.02332.i, 1
  %exitcond.not.i = icmp eq i32 %22, 4
  br i1 %exitcond.not.i, label %23, label %18, !llvm.loop !9

23:                                               ; preds = %18
  %24 = tail call ptr @RelationGetIndexList(ptr noundef nonnull %16) #9
  %.not.i = icmp eq ptr %24, null
  br i1 %.not.i, label %calculate_toast_table_size.exit, label %.lr.ph.i

.lr.ph.i:                                         ; preds = %23
  %25 = getelementptr inbounds nuw i8, ptr %24, i64 4
  %26 = getelementptr inbounds nuw i8, ptr %24, i64 16
  %27 = getelementptr inbounds nuw i8, ptr %3, i64 48
  %28 = load i32, ptr %25, align 4
  %29 = icmp sgt i32 %28, 0
  br i1 %29, label %.lr.ph, label %calculate_toast_table_size.exit

.lr.ph:                                           ; preds = %.lr.ph.i, %69
  %.137.i16 = phi i64 [ %67, %69 ], [ %21, %.lr.ph.i ]
  %indvars.iv.i15 = phi i64 [ %indvars.iv.next.i, %69 ], [ 0, %.lr.ph.i ]
  %30 = load ptr, ptr %26, align 8
  %31 = getelementptr inbounds nuw %union.ListCell, ptr %30, i64 %indvars.iv.i15
  %32 = load i32, ptr %31, align 8
  %33 = call ptr @relation_open(i32 noundef %32, i32 noundef 1) #9
  %34 = getelementptr inbounds nuw i8, ptr %33, i64 28
  %35 = getelementptr inbounds nuw i8, ptr %33, i64 4
  %36 = getelementptr inbounds nuw i8, ptr %33, i64 8
  br label %37

37:                                               ; preds = %calculate_relation_size.exit.i, %.lr.ph
  %.235.i = phi i64 [ %.137.i16, %.lr.ph ], [ %67, %calculate_relation_size.exit.i ]
  %.12434.i = phi i32 [ 0, %.lr.ph ], [ %68, %calculate_relation_size.exit.i ]
  %38 = load i32, ptr %34, align 4
  call void @llvm.lifetime.start.p0(i64 1024, ptr nonnull %2) #9
  %39 = load i32, ptr %35, align 4
  %40 = load i32, ptr %33, align 4
  %41 = load i32, ptr %36, align 4
  %42 = call ptr @GetRelationPath(i32 noundef %39, i32 noundef %40, i32 noundef %41, i32 noundef %38, i32 noundef %.12434.i) #9
  br label %43

43:                                               ; preds = %63, %37
  %.013.i.i = phi i64 [ 0, %37 ], [ %65, %63 ]
  %.012.i.i = phi i32 [ 0, %37 ], [ %66, %63 ]
  call void @llvm.lifetime.start.p0(i64 144, ptr nonnull %3) #9
  %44 = load volatile i32, ptr @InterruptPending, align 4
  %.not.i.i = icmp eq i32 %44, 0
  br i1 %.not.i.i, label %46, label %45, !prof !4

45:                                               ; preds = %43
  call void @ProcessInterrupts() #9
  br label %46

46:                                               ; preds = %45, %43
  %47 = icmp eq i32 %.012.i.i, 0
  br i1 %47, label %48, label %50

48:                                               ; preds = %46
  %49 = call i32 (ptr, i64, ptr, ...) @pg_snprintf(ptr noundef nonnull %2, i64 noundef 1024, ptr noundef nonnull @.str.20, ptr noundef %42) #9
  br label %52

50:                                               ; preds = %46
  %51 = call i32 (ptr, i64, ptr, ...) @pg_snprintf(ptr noundef nonnull %2, i64 noundef 1024, ptr noundef nonnull @.str.21, ptr noundef %42, i32 noundef %.012.i.i) #9
  br label %52

52:                                               ; preds = %50, %48
  %53 = call i32 @stat(ptr noundef nonnull %2, ptr noundef nonnull %3) #9
  %54 = icmp slt i32 %53, 0
  br i1 %54, label %55, label %63

55:                                               ; preds = %52
  %56 = tail call ptr @__errno_location() #11
  %57 = load i32, ptr %56, align 4
  %58 = icmp eq i32 %57, 2
  br i1 %58, label %calculate_relation_size.exit.i, label %59

59:                                               ; preds = %55
  %60 = call zeroext i1 @errstart_cold(i32 noundef 21, ptr noundef null) #10
  call void @llvm.assume(i1 %60)
  %61 = call i32 @errcode_for_file_access() #9
  %62 = call i32 (ptr, ...) @errmsg(ptr noundef nonnull @.str.16, ptr noundef nonnull %2) #9
  call void @errfinish(ptr noundef nonnull @.str.1, i32 noundef 355, ptr noundef nonnull @__func__.calculate_relation_size) #9
  unreachable

63:                                               ; preds = %52
  %64 = load i64, ptr %27, align 8
  %65 = add i64 %64, %.013.i.i
  call void @llvm.lifetime.end.p0(i64 144, ptr nonnull %3) #9
  %66 = add i32 %.012.i.i, 1
  br label %43

calculate_relation_size.exit.i:                   ; preds = %55
  call void @llvm.lifetime.end.p0(i64 144, ptr nonnull %3) #9
  call void @llvm.lifetime.end.p0(i64 1024, ptr nonnull %2) #9
  %67 = add i64 %.013.i.i, %.235.i
  %68 = add nuw nsw i32 %.12434.i, 1
  %exitcond41.not.i = icmp eq i32 %68, 4
  br i1 %exitcond41.not.i, label %69, label %37, !llvm.loop !10

69:                                               ; preds = %calculate_relation_size.exit.i
  call void @relation_close(ptr noundef nonnull %33, i32 noundef 1) #9
  %indvars.iv.next.i = add nuw nsw i64 %indvars.iv.i15, 1
  %70 = load i32, ptr %25, align 4
  %71 = sext i32 %70 to i64
  %72 = icmp slt i64 %indvars.iv.next.i, %71
  br i1 %72, label %.lr.ph, label %calculate_toast_table_size.exit

calculate_toast_table_size.exit:                  ; preds = %69, %.lr.ph.i, %23
  %.1.lcssa.i = phi i64 [ %21, %23 ], [ %21, %.lr.ph.i ], [ %67, %69 ]
  call void @list_free(ptr noundef %24) #9
  call void @relation_close(ptr noundef nonnull %16, i32 noundef 1) #9
  %73 = add i64 %.1.lcssa.i, %8
  br label %74

74:                                               ; preds = %calculate_toast_table_size.exit, %10
  %.1 = phi i64 [ %73, %calculate_toast_table_size.exit ], [ %8, %10 ]
  ret i64 %.1
}